; ModuleID = '20/375.c'
source_filename = "20/375.c"
target datalayout = "e-m:e-p270:32:32-p271:32:32-p272:64:64-i64:64-f80:128-n8:16:32:64-S128"
target triple = "x86_64-pc-linux-gnu"

@.str = private unnamed_addr constant [6 x i8] c"%s %s\00", align 1
@.str.1 = private unnamed_addr constant [3 x i8] c"%c\00", align 1
@.str.2 = private unnamed_addr constant [7 x i8] c"%c%c%c\00", align 1
@.str.3 = private unnamed_addr constant [2 x i8] c"\0A\00", align 1

; Function Attrs: noinline nounwind uwtable
define dso_local i32 @main() #0 {
  %1 = alloca i32, align 4
  %2 = alloca i32, align 4
  %3 = alloca i32, align 4
  %4 = alloca i32, align 4
  %5 = alloca [100 x i8], align 16
  %6 = alloca [5 x i8], align 1
  %7 = alloca i8*, align 8
  %8 = alloca i8*, align 8
  %9 = alloca i8*, align 8
  store i32 0, i32* %1, align 4
  br label %10

10:                                               ; preds = %82, %0
  %11 = getelementptr inbounds [100 x i8], [100 x i8]* %5, i64 0, i64 0
  %12 = getelementptr inbounds [5 x i8], [5 x i8]* %6, i64 0, i64 0
  %13 = call i32 (i8*, ...) @__isoc99_scanf(i8* getelementptr inbounds ([6 x i8], [6 x i8]* @.str, i64 0, i64 0), i8* %11, i8* %12)
  %14 = icmp ne i32 %13, -1
  br i1 %14, label %15, label %84

15:                                               ; preds = %10
  %16 = getelementptr inbounds [100 x i8], [100 x i8]* %5, i64 0, i64 0
  %17 = call i64 @strlen(i8* %16) #3
  %18 = trunc i64 %17 to i32
  store i32 %18, i32* %2, align 4
  %19 = getelementptr inbounds [100 x i8], [100 x i8]* %5, i64 0, i64 0
  store i8* %19, i8** %7, align 8
  store i32 0, i32* %3, align 4
  br label %20

20:                                               ; preds = %39, %15
  %21 = load i8*, i8** %7, align 8
  %22 = getelementptr inbounds [100 x i8], [100 x i8]* %5, i64 0, i64 0
  %23 = load i32, i32* %2, align 4
  %24 = sext i32 %23 to i64
  %25 = getelementptr inbounds i8, i8* %22, i64 %24
  %26 = icmp ult i8* %21, %25
  br i1 %26, label %27, label %42

27:                                               ; preds = %20
  %28 = load i8*, i8** %7, align 8
  %29 = load i8, i8* %28, align 1
  %30 = sext i8 %29 to i32
  %31 = load i32, i32* %3, align 4
  %32 = icmp sgt i32 %30, %31
  br i1 %32, label %33, label %38

33:                                               ; preds = %27
  %34 = load i8*, i8** %7, align 8
  %35 = load i8, i8* %34, align 1
  %36 = sext i8 %35 to i32
  store i32 %36, i32* %3, align 4
  %37 = load i8*, i8** %7, align 8
  store i8* %37, i8** %9, align 8
  br label %38

38:                                               ; preds = %33, %27
  br label %39

39:                                               ; preds = %38
  %40 = load i8*, i8** %7, align 8
  %41 = getelementptr inbounds i8, i8* %40, i32 1
  store i8* %41, i8** %7, align 8
  br label %20

42:                                               ; preds = %20
  %43 = getelementptr inbounds [5 x i8], [5 x i8]* %6, i64 0, i64 0
  store i8* %43, i8** %8, align 8
  %44 = getelementptr inbounds [100 x i8], [100 x i8]* %5, i64 0, i64 0
  store i8* %44, i8** %7, align 8
  store i32 1, i32* %4, align 4
  br label %45

45:                                               ; preds = %79, %42
  %46 = load i8*, i8** %7, align 8
  %47 = getelementptr inbounds [100 x i8], [100 x i8]* %5, i64 0, i64 0
  %48 = load i32, i32* %2, align 4
  %49 = sext i32 %48 to i64
  %50 = getelementptr inbounds i8, i8* %47, i64 %49
  %51 = icmp ult i8* %46, %50
  br i1 %51, label %52, label %82

52:                                               ; preds = %45
  %53 = load i8*, i8** %7, align 8
  %54 = load i8, i8* %53, align 1
  %55 = sext i8 %54 to i32
  %56 = call i32 (i8*, ...) @printf(i8* getelementptr inbounds ([3 x i8], [3 x i8]* @.str.1, i64 0, i64 0), i32 %55)
  %57 = load i8*, i8** %7, align 8
  %58 = load i8, i8* %57, align 1
  %59 = sext i8 %58 to i32
  %60 = load i32, i32* %3, align 4
  %61 = icmp eq i32 %59, %60
  br i1 %61, label %62, label %78

62:                                               ; preds = %52
  %63 = load i32, i32* %4, align 4
  %64 = icmp ne i32 %63, 0
  br i1 %64, label %65, label %78

65:                                               ; preds = %62
  %66 = load i8*, i8** %8, align 8
  %67 = load i8, i8* %66, align 1
  %68 = sext i8 %67 to i32
  %69 = load i8*, i8** %8, align 8
  %70 = getelementptr inbounds i8, i8* %69, i64 1
  %71 = load i8, i8* %70, align 1
  %72 = sext i8 %71 to i32
  %73 = load i8*, i8** %8, align 8
  %74 = getelementptr inbounds i8, i8* %73, i64 2
  %75 = load i8, i8* %74, align 1
  %76 = sext i8 %75 to i32
  %77 = call i32 (i8*, ...) @printf(i8* getelementptr inbounds ([7 x i8], [7 x i8]* @.str.2, i64 0, i64 0), i32 %68, i32 %72, i32 %76)
  store i32 0, i32* %4, align 4
  br label %78

78:                                               ; preds = %65, %62, %52
  br label %79

79:                                               ; preds = %78
  %80 = load i8*, i8** %7, align 8
  %81 = getelementptr inbounds i8, i8* %80, i32 1
  store i8* %81, i8** %7, align 8
  br label %45

82:                                               ; preds = %45
  %83 = call i32 (i8*, ...) @printf(i8* getelementptr inbounds ([2 x i8], [2 x i8]* @.str.3, i64 0, i64 0))
  br label %10

84:                                               ; preds = %10
  %85 = load i32, i32* %1, align 4
  ret i32 %85
}

declare dso_local i32 @__isoc99_scanf(i8*, ...) #1

; Function Attrs: nounwind readonly
declare dso_local i64 @strlen(i8*) #2

declare dso_local i32 @printf(i8*, ...) #1


!llvm.module.flags = !{!0}
!llvm.ident = !{!1}

!0 = !{i32 1, !"wchar_size", i32 4}
!1 = !{!"clang version 10.0.0-4ubuntu1 "}
